target datalayout = "e-m:e-p270:32:32-p271:32:32-p272:64:64-i64:64-i128:128-f80:128-n8:16:32:64-S128"
target triple = "x86_64-pc-linux-gnu"

%struct.callerid_conn_t = type { i32, i32, %struct.in6_addr, %struct.in6_addr, i32 }
%struct.in6_addr = type { %union.anon }
%union.anon = type { [4 x i32] }

@.str = private unnamed_addr constant [14 x i8] c"/proc/net/tcp\00", align 1
@.str.1 = private unnamed_addr constant [15 x i8] c"/proc/net/tcp6\00", align 1

; Function Attrs: nounwind uwtable
define dso_local i32 @callerid_find_inode_by_conn(ptr noundef byval(%struct.callerid_conn_t) align 8 %0, ptr noundef %1) #0 {
  %3 = alloca i32, align 4
  %4 = alloca ptr, align 8
  %5 = alloca i32, align 4
  %6 = alloca i32, align 4
  store ptr %1, ptr %4, align 8
  call void @llvm.lifetime.start.p0(i64 4, ptr %5) #10
  %7 = load ptr, ptr %4, align 8
  %8 = call i32 @_find_match_in_tcp_file(ptr noundef %0, ptr noundef %7, i32 noundef 2, ptr noundef @.str, ptr noundef @_match_conn)
  store i32 %8, ptr %5, align 4
  %9 = load i32, ptr %5, align 4
  %10 = icmp eq i32 %9, 0
  br i1 %10, label %11, label %12

11:                                               ; preds = %2
  store i32 0, ptr %3, align 4
  store i32 1, ptr %6, align 4
  br label %19

12:                                               ; preds = %2
  %13 = load ptr, ptr %4, align 8
  %14 = call i32 @_find_match_in_tcp_file(ptr noundef %0, ptr noundef %13, i32 noundef 10, ptr noundef @.str.1, ptr noundef @_match_conn)
  store i32 %14, ptr %5, align 4
  %15 = load i32, ptr %5, align 4
  %16 = icmp eq i32 %15, 0
  br i1 %16, label %17, label %18

17:                                               ; preds = %12
  store i32 0, ptr %3, align 4
  store i32 1, ptr %6, align 4
  br label %19

18:                                               ; preds = %12
  store i32 -1, ptr %3, align 4
  store i32 1, ptr %6, align 4
  br label %19

19:                                               ; preds = %18, %17, %11
  call void @llvm.lifetime.end.p0(i64 4, ptr %5) #10
  %20 = load i32, ptr %3, align 4
  ret i32 %20
}