; Function Attrs: nounwind uwtable
define dso_local range(i32 -1, 1) i32 @callerid_find_inode_by_conn(ptr noundef byval(%struct.callerid_conn_t) align 8 %0, ptr noundef %1) local_unnamed_addr #0 {
  %3 = call fastcc i32 @_find_match_in_tcp_file(ptr noundef nonnull %0, ptr noundef %1, i32 noundef 2, ptr noundef nonnull @.str, ptr noundef nonnull @_match_conn)
  %4 = icmp eq i32 %3, 0
  br i1 %4, label %8, label %5

5:                                                ; preds = %2
  %6 = call fastcc i32 @_find_match_in_tcp_file(ptr noundef nonnull %0, ptr noundef %1, i32 noundef 10, ptr noundef nonnull @.str.1, ptr noundef nonnull @_match_conn)
  %7 = icmp ne i32 %6, 0
  %. = sext i1 %7 to i32
  br label %8

8:                                                ; preds = %5, %2
  %.0 = phi i32 [ 0, %2 ], [ %., %5 ]
  ret i32 %.0
}